target datalayout = "e-m:e-p270:32:32-p271:32:32-p272:64:64-i64:64-i128:128-f80:128-n8:16:32:64-S128"
target triple = "x86_64-pc-linux-gnu"

%class.cofactor_elim_term_ite = type { ptr, ptr, %class.params_ref }
%class.params_ref = type { ptr }
%"struct.cofactor_elim_term_ite::imp" = type <{ ptr, %class.params_ref, i64, i8, [7 x i8] }>

@_ZTV22cofactor_elim_term_ite = hidden unnamed_addr constant { [4 x ptr] } { [4 x ptr] [ptr null, ptr @_ZTI22cofactor_elim_term_ite, ptr @_ZN22cofactor_elim_term_iteD1Ev, ptr @_ZN22cofactor_elim_term_iteD0Ev] }, align 8
@.str = private unnamed_addr constant [11 x i8] c"max_memory\00", align 1
@.str.1 = private unnamed_addr constant [20 x i8] c"cofactor_equalities\00", align 1

; Function Attrs: inlinehint mustprogress nounwind uwtable
define linkonce_odr hidden noundef i64 @_Z18megabytes_to_bytesj(i32 noundef %0) #9 comdat {
  %2 = alloca i64, align 8
  %3 = alloca i32, align 4
  %4 = alloca i64, align 8
  %5 = alloca i64, align 8
  store i32 %0, ptr %3, align 4, !tbaa !35
  %6 = load i32, ptr %3, align 4, !tbaa !35
  %7 = icmp eq i32 %6, -1
  br i1 %7, label %8, label %9

8:                                                ; preds = %1
  store i64 -1, ptr %2, align 8
  br label %21

9:                                                ; preds = %1
  call void @llvm.lifetime.start.p0(i64 8, ptr %4) #3
  %10 = load i32, ptr %3, align 4, !tbaa !35
  %11 = zext i32 %10 to i64
  %12 = mul i64 %11, 1024
  %13 = mul i64 %12, 1024
  store i64 %13, ptr %4, align 8, !tbaa !37
  call void @llvm.lifetime.start.p0(i64 8, ptr %5) #3
  %14 = load i64, ptr %4, align 8, !tbaa !37
  store i64 %14, ptr %5, align 8, !tbaa !38
  %15 = load i64, ptr %5, align 8, !tbaa !38
  %16 = load i64, ptr %4, align 8, !tbaa !37
  %17 = icmp ne i64 %15, %16
  br i1 %17, label %18, label %19

18:                                               ; preds = %9
  store i64 -1, ptr %5, align 8, !tbaa !38
  br label %19

19:                                               ; preds = %18, %9
  %20 = load i64, ptr %5, align 8, !tbaa !38
  store i64 %20, ptr %2, align 8
  call void @llvm.lifetime.end.p0(i64 8, ptr %5) #3
  call void @llvm.lifetime.end.p0(i64 8, ptr %4) #3
  br label %21

21:                                               ; preds = %19, %8
  %22 = load i64, ptr %2, align 8
  ret i64 %22
}

; Function Attrs: mustprogress uwtable
define linkonce_odr hidden void @_ZN22cofactor_elim_term_ite3imp11updt_paramsERK10params_ref(ptr noundef nonnull align 8 dereferenceable(25) %0, ptr noundef nonnull align 8 dereferenceable(8) %1) #4 comdat align 2 {
  %3 = alloca ptr, align 8
  %4 = alloca ptr, align 8
  store ptr %0, ptr %3, align 8, !tbaa !19
  store ptr %1, ptr %4, align 8, !tbaa !10
  %5 = load ptr, ptr %3, align 8
  %6 = load ptr, ptr %4, align 8, !tbaa !10
  %7 = call noundef i32 @_ZNK10params_ref8get_uintEPKcj(ptr noundef nonnull align 8 dereferenceable(8) %6, ptr noundef @.str, i32 noundef -1)
  %8 = call noundef i64 @_Z18megabytes_to_bytesj(i32 noundef %7)
  %9 = getelementptr inbounds nuw %"struct.cofactor_elim_term_ite::imp", ptr %5, i32 0, i32 2
  store i64 %8, ptr %9, align 8, !tbaa !24
  %10 = load ptr, ptr %4, align 8, !tbaa !10
  %11 = call noundef zeroext i1 @_ZNK10params_ref8get_boolEPKcb(ptr noundef nonnull align 8 dereferenceable(8) %10, ptr noundef @.str.1, i1 noundef zeroext true)
  %12 = getelementptr inbounds nuw %"struct.cofactor_elim_term_ite::imp", ptr %5, i32 0, i32 3
  %13 = zext i1 %11 to i8
  store i8 %13, ptr %12, align 8, !tbaa !20
  ret void
}

; Function Attrs: mustprogress uwtable
define linkonce_odr hidden void @_ZN22cofactor_elim_term_ite3impC2ER11ast_managerRK10params_ref(ptr noundef nonnull align 8 dereferenceable(25) %0, ptr noundef nonnull align 8 dereferenceable(976) %1, ptr noundef nonnull align 8 dereferenceable(8) %2) unnamed_addr #4 comdat align 2 personality ptr @__gxx_personality_v0 {
  %4 = alloca ptr, align 8
  %5 = alloca ptr, align 8
  %6 = alloca ptr, align 8
  %7 = alloca ptr, align 8
  %8 = alloca i32, align 4
  store ptr %0, ptr %4, align 8, !tbaa !19
  store ptr %1, ptr %5, align 8, !tbaa !8
  store ptr %2, ptr %6, align 8, !tbaa !10
  %9 = load ptr, ptr %4, align 8
  %10 = getelementptr inbounds nuw %"struct.cofactor_elim_term_ite::imp", ptr %9, i32 0, i32 0
  %11 = load ptr, ptr %5, align 8, !tbaa !8
  store ptr %11, ptr %10, align 8, !tbaa !8
  %12 = getelementptr inbounds nuw %"struct.cofactor_elim_term_ite::imp", ptr %9, i32 0, i32 1
  %13 = load ptr, ptr %6, align 8, !tbaa !10
  call void @_ZN10params_refC1ERKS_(ptr noundef nonnull align 8 dereferenceable(8) %12, ptr noundef nonnull align 8 dereferenceable(8) %13)
  %14 = getelementptr inbounds nuw %"struct.cofactor_elim_term_ite::imp", ptr %9, i32 0, i32 3
  store i8 1, ptr %14, align 8, !tbaa !20
  %15 = load ptr, ptr %6, align 8, !tbaa !10
  invoke void @_ZN22cofactor_elim_term_ite3imp11updt_paramsERK10params_ref(ptr noundef nonnull align 8 dereferenceable(25) %9, ptr noundef nonnull align 8 dereferenceable(8) %15)
          to label %16 unwind label %17

16:                                               ; preds = %3
  ret void

17:                                               ; preds = %3
  %18 = landingpad { ptr, i32 }
          cleanup
  %19 = extractvalue { ptr, i32 } %18, 0
  store ptr %19, ptr %7, align 8
  %20 = extractvalue { ptr, i32 } %18, 1
  store i32 %20, ptr %8, align 4
  call void @_ZN10params_refD1Ev(ptr noundef nonnull align 8 dereferenceable(8) %12) #3
  br label %21

21:                                               ; preds = %17
  %22 = load ptr, ptr %7, align 8
  %23 = load i32, ptr %8, align 4
  %24 = insertvalue { ptr, i32 } poison, ptr %22, 0
  %25 = insertvalue { ptr, i32 } %24, i32 %23, 1
  resume { ptr, i32 } %25
}

; Function Attrs: mustprogress uwtable
define hidden void @_ZN22cofactor_elim_term_iteC2ER11ast_managerRK10params_ref(ptr noundef nonnull align 8 dereferenceable(24) %0, ptr noundef nonnull align 8 dereferenceable(976) %1, ptr noundef nonnull align 8 dereferenceable(8) %2) unnamed_addr #4 align 2 {
  %4 = alloca ptr, align 8
  %5 = alloca ptr, align 8
  %6 = alloca ptr, align 8
  store ptr %0, ptr %4, align 8, !tbaa !3
  store ptr %1, ptr %5, align 8, !tbaa !8
  store ptr %2, ptr %6, align 8, !tbaa !10
  %7 = load ptr, ptr %4, align 8
  store ptr getelementptr inbounds inrange(-16, 16) ({ [4 x ptr] }, ptr @_ZTV22cofactor_elim_term_ite, i32 0, i32 0, i32 2), ptr %7, align 8, !tbaa !12
  %8 = getelementptr inbounds nuw %class.cofactor_elim_term_ite, ptr %7, i32 0, i32 1
  %9 = call noalias noundef ptr @_ZN6memory8allocateEm(i64 noundef 32)
  %10 = load ptr, ptr %5, align 8, !tbaa !8
  %11 = load ptr, ptr %6, align 8, !tbaa !10
  call void @_ZN22cofactor_elim_term_ite3impC2ER11ast_managerRK10params_ref(ptr noundef nonnull align 8 dereferenceable(25) %9, ptr noundef nonnull align 8 dereferenceable(976) %10, ptr noundef nonnull align 8 dereferenceable(8) %11)
  store ptr %9, ptr %8, align 8, !tbaa !14
  %12 = getelementptr inbounds nuw %class.cofactor_elim_term_ite, ptr %7, i32 0, i32 2
  %13 = load ptr, ptr %6, align 8, !tbaa !10
  call void @_ZN10params_refC1ERKS_(ptr noundef nonnull align 8 dereferenceable(8) %12, ptr noundef nonnull align 8 dereferenceable(8) %13)
  ret void
}