; Function Attrs: mustprogress uwtable
define hidden void @_ZN22cofactor_elim_term_iteC2ER11ast_managerRK10params_ref(ptr noundef nonnull align 8 dereferenceable(24) initializes((0, 8)) %0, ptr noundef nonnull align 8 dereferenceable(976) %1, ptr noundef nonnull align 8 dereferenceable(8) %2) unnamed_addr #3 align 2 personality ptr @__gxx_personality_v0 {
  store ptr getelementptr inbounds nuw inrange(-16, 16) (i8, ptr @_ZTV22cofactor_elim_term_ite, i64 16), ptr %0, align 8, !tbaa !3
  %4 = tail call noalias noundef ptr @_ZN6memory8allocateEm(i64 noundef 32)
  store ptr %1, ptr %4, align 8, !tbaa !6
  %5 = getelementptr inbounds nuw i8, ptr %4, i64 8
  tail call void @_ZN10params_refC1ERKS_(ptr noundef nonnull align 8 dereferenceable(8) %5, ptr noundef nonnull align 8 dereferenceable(8) %2)
  %6 = getelementptr inbounds nuw i8, ptr %4, i64 24
  store i8 1, ptr %6, align 8, !tbaa !10
  %7 = invoke noundef i32 @_ZNK10params_ref8get_uintEPKcj(ptr noundef nonnull align 8 dereferenceable(8) %2, ptr noundef nonnull @.str, i32 noundef -1)
          to label %.noexc.i unwind label %13

.noexc.i:                                         ; preds = %3
  %8 = icmp eq i32 %7, -1
  %9 = zext i32 %7 to i64
  %10 = shl nuw nsw i64 %9, 20
  %.0.i.i.i = select i1 %8, i64 -1, i64 %10
  %11 = getelementptr inbounds nuw i8, ptr %4, i64 16
  store i64 %.0.i.i.i, ptr %11, align 8, !tbaa !16
  %12 = invoke noundef zeroext i1 @_ZNK10params_ref8get_boolEPKcb(ptr noundef nonnull align 8 dereferenceable(8) %2, ptr noundef nonnull @.str.1, i1 noundef zeroext true)
          to label %_ZN22cofactor_elim_term_ite3impC2ER11ast_managerRK10params_ref.exit unwind label %13

13:                                               ; preds = %.noexc.i, %3
  %14 = landingpad { ptr, i32 }
          cleanup
  tail call void @_ZN10params_refD1Ev(ptr noundef nonnull align 8 dereferenceable(8) %5) #18
  resume { ptr, i32 } %14

_ZN22cofactor_elim_term_ite3impC2ER11ast_managerRK10params_ref.exit: ; preds = %.noexc.i
  %15 = getelementptr inbounds nuw i8, ptr %0, i64 8
  %16 = zext i1 %12 to i8
  store i8 %16, ptr %6, align 8, !tbaa !10
  store ptr %4, ptr %15, align 8, !tbaa !17
  %17 = getelementptr inbounds nuw i8, ptr %0, i64 16
  tail call void @_ZN10params_refC1ERKS_(ptr noundef nonnull align 8 dereferenceable(8) %17, ptr noundef nonnull align 8 dereferenceable(8) %2)
  ret void
}